target datalayout = "e-m:e-p270:32:32-p271:32:32-p272:64:64-i64:64-i128:128-f80:128-n8:16:32:64-S128"
target triple = "x86_64-pc-linux-gnu"

%struct.ARKodeSPRKStepMemRec = type { ptr, i32, ptr, ptr, ptr, ptr, i64, i64, i32 }
%struct.ARKodeSPRKTableMem = type { i32, i32, ptr, ptr }

@__func__.sprkStep_WriteParameters = private unnamed_addr constant [25 x i8] c"sprkStep_WriteParameters\00", align 1
@.str.8 = private unnamed_addr constant [39 x i8] c"SPRKStep time step module parameters:\0A\00", align 1
@.str.9 = private unnamed_addr constant [19 x i8] c"  Method order %i\0A\00", align 1
@.str.10 = private unnamed_addr constant [20 x i8] c"  Method stages %i\0A\00", align 1

; Function Attrs: nounwind uwtable
define i32 @sprkStep_WriteParameters(ptr noundef %0, ptr noundef %1) #0 {
  %3 = alloca i32, align 4
  %4 = alloca ptr, align 8
  %5 = alloca ptr, align 8
  %6 = alloca ptr, align 8
  %7 = alloca i32, align 4
  %8 = alloca i32, align 4
  store ptr %0, ptr %4, align 8, !tbaa !9
  store ptr %1, ptr %5, align 8, !tbaa !40
  call void @llvm.lifetime.start.p0(i64 8, ptr %6) #4
  store ptr null, ptr %6, align 8, !tbaa !11
  call void @llvm.lifetime.start.p0(i64 4, ptr %7) #4
  store i32 0, ptr %7, align 4, !tbaa !7
  %9 = load ptr, ptr %4, align 8, !tbaa !9
  %10 = call i32 @sprkStep_AccessStepMem(ptr noundef %9, ptr noundef @__func__.sprkStep_WriteParameters, ptr noundef %6)
  store i32 %10, ptr %7, align 4, !tbaa !7
  %11 = load i32, ptr %7, align 4, !tbaa !7
  %12 = icmp ne i32 %11, 0
  br i1 %12, label %13, label %15

13:                                               ; preds = %2
  %14 = load i32, ptr %7, align 4, !tbaa !7
  store i32 %14, ptr %3, align 4
  store i32 1, ptr %8, align 4
  br label %32

15:                                               ; preds = %2
  %16 = load ptr, ptr %5, align 8, !tbaa !40
  %17 = call i32 (ptr, ptr, ...) @fprintf(ptr noundef %16, ptr noundef @.str.8) #4
  %18 = load ptr, ptr %5, align 8, !tbaa !40
  %19 = load ptr, ptr %6, align 8, !tbaa !11
  %20 = getelementptr inbounds nuw %struct.ARKodeSPRKStepMemRec, ptr %19, i32 0, i32 0
  %21 = load ptr, ptr %20, align 8, !tbaa !29
  %22 = getelementptr inbounds nuw %struct.ARKodeSPRKTableMem, ptr %21, i32 0, i32 0
  %23 = load i32, ptr %22, align 8, !tbaa !42
  %24 = call i32 (ptr, ptr, ...) @fprintf(ptr noundef %18, ptr noundef @.str.9, i32 noundef %23) #4
  %25 = load ptr, ptr %5, align 8, !tbaa !40
  %26 = load ptr, ptr %6, align 8, !tbaa !11
  %27 = getelementptr inbounds nuw %struct.ARKodeSPRKStepMemRec, ptr %26, i32 0, i32 0
  %28 = load ptr, ptr %27, align 8, !tbaa !29
  %29 = getelementptr inbounds nuw %struct.ARKodeSPRKTableMem, ptr %28, i32 0, i32 1
  %30 = load i32, ptr %29, align 4, !tbaa !45
  %31 = call i32 (ptr, ptr, ...) @fprintf(ptr noundef %25, ptr noundef @.str.10, i32 noundef %30) #4
  store i32 0, ptr %3, align 4
  store i32 1, ptr %8, align 4
  br label %32

32:                                               ; preds = %15, %13
  call void @llvm.lifetime.end.p0(i64 4, ptr %7) #4
  call void @llvm.lifetime.end.p0(i64 8, ptr %6) #4
  %33 = load i32, ptr %3, align 4
  ret i32 %33
}