; Function Attrs: nounwind uwtable
define i32 @sprkStep_WriteParameters(ptr noundef %0, ptr noundef captures(none) %1) local_unnamed_addr #0 {
  %3 = alloca ptr, align 8
  call void @llvm.lifetime.start.p0(i64 8, ptr nonnull %3) #5
  store ptr null, ptr %3, align 8, !tbaa !8
  %4 = call i32 @sprkStep_AccessStepMem(ptr noundef %0, ptr noundef nonnull @__func__.sprkStep_WriteParameters, ptr noundef nonnull %3) #5
  %.not = icmp eq i32 %4, 0
  br i1 %.not, label %5, label %16

5:                                                ; preds = %2
  %6 = call i64 @fwrite(ptr nonnull @.str.8, i64 38, i64 1, ptr %1)
  %7 = load ptr, ptr %3, align 8, !tbaa !8
  %8 = load ptr, ptr %7, align 8, !tbaa !26
  %9 = load i32, ptr %8, align 8, !tbaa !32
  %10 = call i32 (ptr, ptr, ...) @fprintf(ptr noundef %1, ptr noundef nonnull @.str.9, i32 noundef %9) #5
  %11 = load ptr, ptr %3, align 8, !tbaa !8
  %12 = load ptr, ptr %11, align 8, !tbaa !26
  %13 = getelementptr inbounds nuw i8, ptr %12, i64 4
  %14 = load i32, ptr %13, align 4, !tbaa !35
  %15 = call i32 (ptr, ptr, ...) @fprintf(ptr noundef %1, ptr noundef nonnull @.str.10, i32 noundef %14) #5
  br label %16

16:                                               ; preds = %2, %5
  call void @llvm.lifetime.end.p0(i64 8, ptr nonnull %3) #5
  ret i32 %4
}